target datalayout = "e-m:e-p270:32:32-p271:32:32-p272:64:64-i64:64-i128:128-f80:128-n8:16:32:64-S128"
target triple = "x86_64-pc-linux-gnu"

%struct.WalSummaryFile = type { i64, i64, i32 }
%struct.ForEachState = type { ptr, i32 }
%struct.List = type { i32, i32, i32, ptr, [0 x %union.ListCell] }
%union.ListCell = type { ptr }

; Function Attrs: nounwind uwtable
define dso_local ptr @FilterWalSummaries(ptr noundef %0, i32 noundef %1, i64 noundef %2, i64 noundef %3) #0 {
  %5 = alloca ptr, align 8
  %6 = alloca i32, align 4
  %7 = alloca i64, align 8
  %8 = alloca i64, align 8
  %9 = alloca ptr, align 8
  %10 = alloca ptr, align 8
  %11 = alloca %struct.ForEachState, align 8
  %12 = alloca i32, align 4
  %13 = alloca ptr, align 8
  store ptr %0, ptr %5, align 8
  store i32 %1, ptr %6, align 4
  store i64 %2, ptr %7, align 8
  store i64 %3, ptr %8, align 8
  call void @llvm.lifetime.start.p0(i64 8, ptr %9) #10
  store ptr null, ptr %9, align 8
  call void @llvm.lifetime.start.p0(i64 8, ptr %10) #10
  call void @llvm.lifetime.start.p0(i64 16, ptr %11) #10
  %14 = getelementptr inbounds nuw %struct.ForEachState, ptr %11, i32 0, i32 0
  %15 = load ptr, ptr %5, align 8
  store ptr %15, ptr %14, align 8
  %16 = getelementptr inbounds nuw %struct.ForEachState, ptr %11, i32 0, i32 1
  store i32 0, ptr %16, align 8
  %17 = getelementptr i8, ptr %11, i64 12
  call void @llvm.memset.p0.i64(ptr align 4 %17, i8 0, i64 4, i1 false)
  br label %18

18:                                               ; preds = %83, %4
  %19 = getelementptr inbounds nuw %struct.ForEachState, ptr %11, i32 0, i32 0
  %20 = load ptr, ptr %19, align 8
  %21 = icmp ne ptr %20, null
  br i1 %21, label %22, label %39

22:                                               ; preds = %18
  %23 = getelementptr inbounds nuw %struct.ForEachState, ptr %11, i32 0, i32 1
  %24 = load i32, ptr %23, align 8
  %25 = getelementptr inbounds nuw %struct.ForEachState, ptr %11, i32 0, i32 0
  %26 = load ptr, ptr %25, align 8
  %27 = getelementptr inbounds nuw %struct.List, ptr %26, i32 0, i32 1
  %28 = load i32, ptr %27, align 4
  %29 = icmp slt i32 %24, %28
  br i1 %29, label %30, label %39

30:                                               ; preds = %22
  %31 = getelementptr inbounds nuw %struct.ForEachState, ptr %11, i32 0, i32 0
  %32 = load ptr, ptr %31, align 8
  %33 = getelementptr inbounds nuw %struct.List, ptr %32, i32 0, i32 3
  %34 = load ptr, ptr %33, align 8
  %35 = getelementptr inbounds nuw %struct.ForEachState, ptr %11, i32 0, i32 1
  %36 = load i32, ptr %35, align 8
  %37 = sext i32 %36 to i64
  %38 = getelementptr inbounds %union.ListCell, ptr %34, i64 %37
  store ptr %38, ptr %10, align 8
  br label %40

39:                                               ; preds = %22, %18
  store ptr null, ptr %10, align 8
  br label %40

40:                                               ; preds = %39, %30
  %41 = phi i32 [ 1, %30 ], [ 0, %39 ]
  %42 = icmp ne i32 %41, 0
  br i1 %42, label %44, label %43

43:                                               ; preds = %40
  store i32 2, ptr %12, align 4
  call void @llvm.lifetime.end.p0(i64 16, ptr %11) #10
  br label %87

44:                                               ; preds = %40
  call void @llvm.lifetime.start.p0(i64 8, ptr %13) #10
  %45 = load ptr, ptr %10, align 8
  %46 = load ptr, ptr %45, align 8
  store ptr %46, ptr %13, align 8
  %47 = load i32, ptr %6, align 4
  %48 = icmp ne i32 %47, 0
  br i1 %48, label %49, label %56

49:                                               ; preds = %44
  %50 = load i32, ptr %6, align 4
  %51 = load ptr, ptr %13, align 8
  %52 = getelementptr inbounds nuw %struct.WalSummaryFile, ptr %51, i32 0, i32 2
  %53 = load i32, ptr %52, align 8
  %54 = icmp ne i32 %50, %53
  br i1 %54, label %55, label %56

55:                                               ; preds = %49
  store i32 4, ptr %12, align 4
  br label %80

56:                                               ; preds = %49, %44
  %57 = load i64, ptr %7, align 8
  %58 = icmp eq i64 %57, 0
  br i1 %58, label %66, label %59

59:                                               ; preds = %56
  %60 = load i64, ptr %7, align 8
  %61 = load ptr, ptr %13, align 8
  %62 = getelementptr inbounds nuw %struct.WalSummaryFile, ptr %61, i32 0, i32 1
  %63 = load i64, ptr %62, align 8
  %64 = icmp ugt i64 %60, %63
  br i1 %64, label %65, label %66

65:                                               ; preds = %59
  store i32 4, ptr %12, align 4
  br label %80

66:                                               ; preds = %59, %56
  %67 = load i64, ptr %8, align 8
  %68 = icmp eq i64 %67, 0
  br i1 %68, label %76, label %69

69:                                               ; preds = %66
  %70 = load i64, ptr %8, align 8
  %71 = load ptr, ptr %13, align 8
  %72 = getelementptr inbounds nuw %struct.WalSummaryFile, ptr %71, i32 0, i32 0
  %73 = load i64, ptr %72, align 8
  %74 = icmp ult i64 %70, %73
  br i1 %74, label %75, label %76

75:                                               ; preds = %69
  store i32 4, ptr %12, align 4
  br label %80

76:                                               ; preds = %69, %66
  %77 = load ptr, ptr %9, align 8
  %78 = load ptr, ptr %13, align 8
  %79 = call ptr @lappend(ptr noundef %77, ptr noundef %78)
  store ptr %79, ptr %9, align 8
  store i32 0, ptr %12, align 4
  br label %80

80:                                               ; preds = %76, %75, %65, %55
  call void @llvm.lifetime.end.p0(i64 8, ptr %13) #10
  %81 = load i32, ptr %12, align 4
  switch i32 %81, label %89 [
    i32 0, label %82
    i32 4, label %83
  ]

82:                                               ; preds = %80
  br label %83

83:                                               ; preds = %82, %80
  %84 = getelementptr inbounds nuw %struct.ForEachState, ptr %11, i32 0, i32 1
  %85 = load i32, ptr %84, align 8
  %86 = add i32 %85, 1
  store i32 %86, ptr %84, align 8
  br label %18, !llvm.loop !6

87:                                               ; preds = %43
  %88 = load ptr, ptr %9, align 8
  store i32 1, ptr %12, align 4
  call void @llvm.lifetime.end.p0(i64 8, ptr %10) #10
  call void @llvm.lifetime.end.p0(i64 8, ptr %9) #10
  ret ptr %88

89:                                               ; preds = %80
  unreachable
}